target datalayout = "e-m:e-p270:32:32-p271:32:32-p272:64:64-i64:64-i128:128-f80:128-n8:16:32:64-S128"
target triple = "x86_64-pc-linux-gnu"

%struct.darktable_t = type { %struct.dt_codepath_t, i32, i32, ptr, ptr, ptr, ptr, ptr, ptr, ptr, ptr, ptr, ptr, ptr, ptr, ptr, ptr, ptr, ptr, ptr, ptr, ptr, ptr, ptr, ptr, ptr, ptr, ptr, ptr, ptr, [64 x %struct.dt_pthread_mutex_t], %struct.dt_pthread_mutex_t, %struct.dt_pthread_mutex_t, %struct.dt_pthread_mutex_t, %struct.dt_pthread_mutex_t, %struct.dt_pthread_mutex_t, ptr, ptr, ptr, ptr, ptr, ptr, ptr, ptr, ptr, ptr, ptr, ptr, ptr, %struct.dt_lua_state_t, ptr, double, ptr, i32, [47 x i32], i32, i32, ptr, ptr, %struct.dt_sys_resources_t, %struct.dt_backthumb_t, %struct.dt_gimp_t }
%struct.dt_codepath_t = type { i8, [3 x i8] }
%struct.dt_pthread_mutex_t = type { %union.pthread_mutex_t }
%union.pthread_mutex_t = type { %struct.__pthread_mutex_s }
%struct.__pthread_mutex_s = type { i32, i32, i32, i32, i32, i16, i16, %struct.__pthread_internal_list }
%struct.__pthread_internal_list = type { ptr, ptr }
%struct.dt_lua_state_t = type { i32 }
%struct.dt_sys_resources_t = type { i64, i64, ptr, ptr, i32 }
%struct.dt_backthumb_t = type { double, double, i32, i32, i32, i32 }
%struct.dt_gimp_t = type { i32, ptr, ptr, i32, i32 }
%struct.dt_lib_module_t = type { %struct.dt_action_t, ptr, ptr, ptr, ptr, ptr, ptr, ptr, ptr, ptr, ptr, ptr, ptr, ptr, ptr, ptr, ptr, ptr, ptr, ptr, ptr, ptr, ptr, ptr, ptr, ptr, ptr, ptr, ptr, ptr, ptr, [128 x i8], ptr, ptr, i32, ptr, ptr, ptr, i32 }
%struct.dt_action_t = type { i32, ptr, ptr, ptr, ptr, ptr }
%struct.dt_view_t = type { %struct.dt_action_t, ptr, ptr, ptr, ptr, ptr, ptr, ptr, ptr, ptr, ptr, ptr, ptr, ptr, ptr, ptr, ptr, ptr, ptr, ptr, ptr, ptr, [64 x i8], ptr, ptr, i32, i32, float, float, float, float, float, float, float, float }
%struct.dt_lib_t = type { ptr, ptr, %struct.anon }
%struct.anon = type { %struct.anon.0, %struct.anon.1, %struct.anon.2, %struct.anon.3 }
%struct.anon.0 = type { ptr, ptr, ptr, ptr, ptr, i32, i32, i32, ptr, ptr, ptr, ptr, ptr }
%struct.anon.1 = type { ptr, ptr, i32 }
%struct.anon.2 = type { ptr }
%struct.anon.3 = type { i32 }
%struct._GList = type { ptr, ptr, ptr }
%struct.dt_gui_gtk_t = type { ptr, %struct.dt_gui_widgets_t, %struct.dt_gui_scrollbars_t, i32, ptr, i32, [39 x %struct._GdkRGBA], i32, i32, i32, i32, i32, double, double, double, double, ptr, double, double, double, double, i32, i32, [4096 x i8], i32, i32, i32, %struct.dt_pthread_mutex_t }
%struct.dt_gui_widgets_t = type { ptr, ptr, ptr, ptr, i32, i32, i32 }
%struct.dt_gui_scrollbars_t = type { ptr, ptr, i32 }
%struct._GdkRGBA = type { double, double, double, double }
%struct._GdkEventButton = type { i32, ptr, i8, i32, double, double, ptr, i32, i32, ptr, double, double }

@darktable = external global %struct.darktable_t, align 8
@.str = private unnamed_addr constant [35 x i8] c"module %s doesn't have views flags\00", align 1
@.str.1 = private unnamed_addr constant [9 x i8] c"_visible\00", align 1
@.str.79 = private unnamed_addr constant [28 x i8] c"lighttable/ui/single_module\00", align 1
@dt_modifier_shortcuts = external global i32, align 4

; Function Attrs: inlinehint nounwind uwtable
define internal ptr @DTGTK_EXPANDER(ptr noundef %0) #5 {
  %2 = alloca ptr, align 8
  store ptr %0, ptr %2, align 8, !tbaa !76
  %3 = load ptr, ptr %2, align 8, !tbaa !76
  %4 = call i64 @dtgtk_expander_get_type()
  %5 = call ptr @g_type_check_instance_cast(ptr noundef %3, i64 noundef %4)
  ret ptr %5
}

; Function Attrs: nounwind uwtable
define i32 @dt_lib_is_visible_in_view(ptr noundef %0, ptr noundef %1) #0 {
  %3 = alloca i32, align 4
  %4 = alloca ptr, align 8
  %5 = alloca ptr, align 8
  %6 = alloca i32, align 4
  %7 = alloca ptr, align 8
  store ptr %0, ptr %4, align 8, !tbaa !6
  store ptr %1, ptr %5, align 8, !tbaa !11
  %8 = load ptr, ptr %4, align 8, !tbaa !6
  %9 = getelementptr inbounds nuw %struct.dt_lib_module_t, ptr %8, i32 0, i32 3
  %10 = load ptr, ptr %9, align 8, !tbaa !13
  %11 = icmp ne ptr %10, null
  br i1 %11, label %26, label %12

12:                                               ; preds = %2
  br label %13

13:                                               ; preds = %12
  %14 = load i32, ptr getelementptr inbounds nuw (%struct.darktable_t, ptr @darktable, i32 0, i32 2), align 8, !tbaa !21
  %15 = xor i32 %14, -1
  %16 = and i32 0, %15
  %17 = icmp ne i32 %16, 0
  br i1 %17, label %24, label %18

18:                                               ; preds = %13
  %19 = load ptr, ptr %4, align 8, !tbaa !6
  %20 = getelementptr inbounds nuw %struct.dt_lib_module_t, ptr %19, i32 0, i32 2
  %21 = load ptr, ptr %20, align 8, !tbaa !58
  %22 = load ptr, ptr %4, align 8, !tbaa !6
  %23 = call ptr %21(ptr noundef %22)
  call void (ptr, ...) @dt_print_ext(ptr noundef @.str, ptr noundef %23)
  br label %24

24:                                               ; preds = %18, %13
  br label %25

25:                                               ; preds = %24
  store i32 0, ptr %3, align 4
  br label %53

26:                                               ; preds = %2
  call void @llvm.lifetime.start.p0(i64 4, ptr %6) #12
  %27 = load ptr, ptr %4, align 8, !tbaa !6
  %28 = getelementptr inbounds nuw %struct.dt_lib_module_t, ptr %27, i32 0, i32 3
  %29 = load ptr, ptr %28, align 8, !tbaa !13
  %30 = load ptr, ptr %4, align 8, !tbaa !6
  %31 = call i32 %29(ptr noundef %30)
  %32 = load ptr, ptr %5, align 8, !tbaa !11
  %33 = getelementptr inbounds nuw %struct.dt_view_t, ptr %32, i32 0, i32 3
  %34 = load ptr, ptr %33, align 8, !tbaa !59
  %35 = load ptr, ptr %5, align 8, !tbaa !11
  %36 = call i32 %34(ptr noundef %35)
  %37 = and i32 %31, %36
  store i32 %37, ptr %6, align 4, !tbaa !62
  call void @llvm.lifetime.start.p0(i64 8, ptr %7) #12
  %38 = load ptr, ptr %4, align 8, !tbaa !6
  %39 = load ptr, ptr %5, align 8, !tbaa !11
  %40 = call ptr @_get_lib_view_path(ptr noundef %38, ptr noundef %39, ptr noundef @.str.1)
  store ptr %40, ptr %7, align 8, !tbaa !63
  %41 = load ptr, ptr %7, align 8, !tbaa !63
  %42 = icmp ne ptr %41, null
  br i1 %42, label %43, label %50

43:                                               ; preds = %26
  %44 = load ptr, ptr %7, align 8, !tbaa !63
  %45 = call i32 @dt_conf_key_exists(ptr noundef %44)
  %46 = icmp ne i32 %45, 0
  br i1 %46, label %47, label %50

47:                                               ; preds = %43
  %48 = load ptr, ptr %7, align 8, !tbaa !63
  %49 = call i32 @dt_conf_get_bool(ptr noundef %48)
  store i32 %49, ptr %6, align 4, !tbaa !62
  br label %50

50:                                               ; preds = %47, %43, %26
  %51 = load ptr, ptr %7, align 8, !tbaa !63
  call void @g_free(ptr noundef %51)
  %52 = load i32, ptr %6, align 4, !tbaa !62
  store i32 %52, ptr %3, align 4
  call void @llvm.lifetime.end.p0(i64 8, ptr %7) #12
  call void @llvm.lifetime.end.p0(i64 4, ptr %6) #12
  br label %53

53:                                               ; preds = %50, %25
  %54 = load i32, ptr %3, align 4
  ret i32 %54
}

; Function Attrs: inlinehint nounwind uwtable
define internal i32 @dt_modifier_is(i32 noundef %0, i32 noundef %1) #5 {
  %3 = alloca i32, align 4
  %4 = alloca i32, align 4
  %5 = alloca i32, align 4
  store i32 %0, ptr %3, align 4, !tbaa !62
  store i32 %1, ptr %4, align 4, !tbaa !62
  call void @llvm.lifetime.start.p0(i64 4, ptr %5) #12
  %6 = call i32 @gtk_accelerator_get_default_mod_mask()
  store i32 %6, ptr %5, align 4, !tbaa !62
  %7 = load i32, ptr %3, align 4, !tbaa !62
  %8 = load i32, ptr @dt_modifier_shortcuts, align 4, !tbaa !62
  %9 = or i32 %7, %8
  %10 = load i32, ptr %5, align 4, !tbaa !62
  %11 = and i32 %9, %10
  %12 = load i32, ptr %4, align 4, !tbaa !62
  %13 = icmp eq i32 %11, %12
  %14 = zext i1 %13 to i32
  call void @llvm.lifetime.end.p0(i64 4, ptr %5) #12
  ret i32 %14
}

; Function Attrs: nounwind uwtable
define internal i32 @_lib_plugin_arrow_button_press(ptr noundef %0, ptr noundef %1, ptr noundef %2) #0 {
  %4 = alloca i32, align 4
  %5 = alloca ptr, align 8
  %6 = alloca ptr, align 8
  %7 = alloca ptr, align 8
  %8 = alloca ptr, align 8
  %9 = alloca i32, align 4
  %10 = alloca ptr, align 8
  %11 = alloca i32, align 4
  %12 = alloca i32, align 4
  %13 = alloca ptr, align 8
  %14 = alloca ptr, align 8
  store ptr %0, ptr %5, align 8, !tbaa !111
  store ptr %1, ptr %6, align 8, !tbaa !120
  store ptr %2, ptr %7, align 8, !tbaa !76
  %15 = load ptr, ptr %6, align 8, !tbaa !120
  %16 = getelementptr inbounds nuw %struct._GdkEventButton, ptr %15, i32 0, i32 0
  %17 = load i32, ptr %16, align 8, !tbaa !165
  %18 = icmp eq i32 %17, 5
  br i1 %18, label %24, label %19

19:                                               ; preds = %3
  %20 = load ptr, ptr %6, align 8, !tbaa !120
  %21 = getelementptr inbounds nuw %struct._GdkEventButton, ptr %20, i32 0, i32 0
  %22 = load i32, ptr %21, align 8, !tbaa !165
  %23 = icmp eq i32 %22, 6
  br i1 %23, label %24, label %25

24:                                               ; preds = %19, %3
  store i32 1, ptr %4, align 4
  br label %171

25:                                               ; preds = %19
  call void @llvm.lifetime.start.p0(i64 8, ptr %8) #12
  %26 = load ptr, ptr %7, align 8, !tbaa !76
  store ptr %26, ptr %8, align 8, !tbaa !6
  %27 = load ptr, ptr %6, align 8, !tbaa !120
  %28 = getelementptr inbounds nuw %struct._GdkEventButton, ptr %27, i32 0, i32 8
  %29 = load i32, ptr %28, align 4, !tbaa !169
  %30 = icmp eq i32 %29, 1
  br i1 %30, label %31, label %153

31:                                               ; preds = %25
  %32 = load ptr, ptr %8, align 8, !tbaa !6
  %33 = getelementptr inbounds nuw %struct.dt_lib_module_t, ptr %32, i32 0, i32 5
  %34 = load ptr, ptr %33, align 8, !tbaa !65
  %35 = load ptr, ptr %8, align 8, !tbaa !6
  %36 = call i32 %34(ptr noundef %35)
  %37 = icmp ne i32 %36, 0
  br i1 %37, label %39, label %38

38:                                               ; preds = %31
  store i32 0, ptr %4, align 4
  store i32 1, ptr %9, align 4
  br label %170

39:                                               ; preds = %31
  %40 = load ptr, ptr %6, align 8, !tbaa !120
  %41 = getelementptr inbounds nuw %struct._GdkEventButton, ptr %40, i32 0, i32 7
  %42 = load i32, ptr %41, align 8, !tbaa !170
  %43 = call i32 @dt_modifier_is(i32 noundef %42, i32 noundef 5)
  %44 = icmp ne i32 %43, 0
  br i1 %44, label %45, label %46

45:                                               ; preds = %39
  br label %148

46:                                               ; preds = %39
  %47 = call i32 @dt_conf_get_bool(ptr noundef @.str.79)
  %48 = icmp ne i32 %47, 0
  %49 = xor i1 %48, true
  %50 = zext i1 %49 to i32
  %51 = load ptr, ptr %6, align 8, !tbaa !120
  %52 = getelementptr inbounds nuw %struct._GdkEventButton, ptr %51, i32 0, i32 7
  %53 = load i32, ptr %52, align 8, !tbaa !170
  %54 = call i32 @dt_modifier_is(i32 noundef %53, i32 noundef 1)
  %55 = icmp ne i32 %54, 0
  %56 = xor i1 %55, true
  %57 = zext i1 %56 to i32
  %58 = icmp ne i32 %50, %57
  br i1 %58, label %59, label %137

59:                                               ; preds = %46
  call void @llvm.lifetime.start.p0(i64 8, ptr %10) #12
  %60 = load ptr, ptr getelementptr inbounds nuw (%struct.darktable_t, ptr @darktable, i32 0, i32 11), align 8, !tbaa !64
  %61 = call ptr @dt_view_manager_get_current_view(ptr noundef %60)
  store ptr %61, ptr %10, align 8, !tbaa !11
  call void @llvm.lifetime.start.p0(i64 4, ptr %11) #12
  %62 = load ptr, ptr %8, align 8, !tbaa !6
  %63 = call i32 @dt_lib_get_container(ptr noundef %62)
  store i32 %63, ptr %11, align 4, !tbaa !62
  call void @llvm.lifetime.start.p0(i64 4, ptr %12) #12
  store i32 1, ptr %12, align 4, !tbaa !62
  call void @llvm.lifetime.start.p0(i64 8, ptr %13) #12
  %64 = load ptr, ptr getelementptr inbounds nuw (%struct.darktable_t, ptr @darktable, i32 0, i32 10), align 8, !tbaa !79
  %65 = getelementptr inbounds nuw %struct.dt_lib_t, ptr %64, i32 0, i32 0
  %66 = load ptr, ptr %65, align 8, !tbaa !80
  store ptr %66, ptr %13, align 8, !tbaa !89
  br label %67

67:                                               ; preds = %119, %59
  %68 = load ptr, ptr %13, align 8, !tbaa !89
  %69 = icmp ne ptr %68, null
  br i1 %69, label %71, label %70

70:                                               ; preds = %67
  store i32 2, ptr %9, align 4
  call void @llvm.lifetime.end.p0(i64 8, ptr %13) #12
  br label %121

71:                                               ; preds = %67
  call void @llvm.lifetime.start.p0(i64 8, ptr %14) #12
  %72 = load ptr, ptr %13, align 8, !tbaa !89
  %73 = getelementptr inbounds nuw %struct._GList, ptr %72, i32 0, i32 0
  %74 = load ptr, ptr %73, align 8, !tbaa !90
  store ptr %74, ptr %14, align 8, !tbaa !6
  %75 = load ptr, ptr %14, align 8, !tbaa !6
  %76 = load ptr, ptr %8, align 8, !tbaa !6
  %77 = icmp ne ptr %75, %76
  br i1 %77, label %78, label %110

78:                                               ; preds = %71
  %79 = load ptr, ptr %14, align 8, !tbaa !6
  %80 = call i32 @dt_lib_get_container(ptr noundef %79)
  %81 = load i32, ptr %11, align 4, !tbaa !62
  %82 = icmp eq i32 %80, %81
  br i1 %82, label %83, label %110

83:                                               ; preds = %78
  %84 = load ptr, ptr %14, align 8, !tbaa !6
  %85 = getelementptr inbounds nuw %struct.dt_lib_module_t, ptr %84, i32 0, i32 5
  %86 = load ptr, ptr %85, align 8, !tbaa !65
  %87 = load ptr, ptr %14, align 8, !tbaa !6
  %88 = call i32 %86(ptr noundef %87)
  %89 = icmp ne i32 %88, 0
  br i1 %89, label %90, label %110

90:                                               ; preds = %83
  %91 = load ptr, ptr %14, align 8, !tbaa !6
  %92 = load ptr, ptr %10, align 8, !tbaa !11
  %93 = call i32 @dt_lib_is_visible_in_view(ptr noundef %91, ptr noundef %92)
  %94 = icmp ne i32 %93, 0
  br i1 %94, label %95, label %110

95:                                               ; preds = %90
  %96 = load i32, ptr %12, align 4, !tbaa !62
  %97 = icmp ne i32 %96, 0
  br i1 %97, label %98, label %106

98:                                               ; preds = %95
  %99 = load ptr, ptr %14, align 8, !tbaa !6
  %100 = getelementptr inbounds nuw %struct.dt_lib_module_t, ptr %99, i32 0, i32 33
  %101 = load ptr, ptr %100, align 8, !tbaa !107
  %102 = call ptr @DTGTK_EXPANDER(ptr noundef %101)
  %103 = call i32 @dtgtk_expander_get_expanded(ptr noundef %102)
  %104 = icmp ne i32 %103, 0
  %105 = xor i1 %104, true
  br label %106

106:                                              ; preds = %98, %95
  %107 = phi i1 [ false, %95 ], [ %105, %98 ]
  %108 = zext i1 %107 to i32
  store i32 %108, ptr %12, align 4, !tbaa !62
  %109 = load ptr, ptr %14, align 8, !tbaa !6
  call void @dt_lib_gui_set_expanded(ptr noundef %109, i32 noundef 0)
  br label %110

110:                                              ; preds = %106, %90, %83, %78, %71
  call void @llvm.lifetime.end.p0(i64 8, ptr %14) #12
  br label %111

111:                                              ; preds = %110
  %112 = load ptr, ptr %13, align 8, !tbaa !89
  %113 = icmp ne ptr %112, null
  br i1 %113, label %114, label %118

114:                                              ; preds = %111
  %115 = load ptr, ptr %13, align 8, !tbaa !89
  %116 = getelementptr inbounds nuw %struct._GList, ptr %115, i32 0, i32 1
  %117 = load ptr, ptr %116, align 8, !tbaa !93
  br label %119

118:                                              ; preds = %111
  br label %119

119:                                              ; preds = %118, %114
  %120 = phi ptr [ %117, %114 ], [ null, %118 ]
  store ptr %120, ptr %13, align 8, !tbaa !89
  br label %67

121:                                              ; preds = %70
  %122 = load i32, ptr %12, align 4, !tbaa !62
  %123 = icmp ne i32 %122, 0
  br i1 %123, label %124, label %134

124:                                              ; preds = %121
  %125 = load ptr, ptr %8, align 8, !tbaa !6
  %126 = load ptr, ptr %8, align 8, !tbaa !6
  %127 = getelementptr inbounds nuw %struct.dt_lib_module_t, ptr %126, i32 0, i32 33
  %128 = load ptr, ptr %127, align 8, !tbaa !107
  %129 = call ptr @DTGTK_EXPANDER(ptr noundef %128)
  %130 = call i32 @dtgtk_expander_get_expanded(ptr noundef %129)
  %131 = icmp ne i32 %130, 0
  %132 = xor i1 %131, true
  %133 = zext i1 %132 to i32
  call void @dt_lib_gui_set_expanded(ptr noundef %125, i32 noundef %133)
  br label %136

134:                                              ; preds = %121
  %135 = load ptr, ptr %8, align 8, !tbaa !6
  call void @dt_lib_gui_set_expanded(ptr noundef %135, i32 noundef 1)
  br label %136

136:                                              ; preds = %134, %124
  call void @llvm.lifetime.end.p0(i64 4, ptr %12) #12
  call void @llvm.lifetime.end.p0(i64 4, ptr %11) #12
  call void @llvm.lifetime.end.p0(i64 8, ptr %10) #12
  br label %147

137:                                              ; preds = %46
  %138 = load ptr, ptr %8, align 8, !tbaa !6
  %139 = load ptr, ptr %8, align 8, !tbaa !6
  %140 = getelementptr inbounds nuw %struct.dt_lib_module_t, ptr %139, i32 0, i32 33
  %141 = load ptr, ptr %140, align 8, !tbaa !107
  %142 = call ptr @DTGTK_EXPANDER(ptr noundef %141)
  %143 = call i32 @dtgtk_expander_get_expanded(ptr noundef %142)
  %144 = icmp ne i32 %143, 0
  %145 = xor i1 %144, true
  %146 = zext i1 %145 to i32
  call void @dt_lib_gui_set_expanded(ptr noundef %138, i32 noundef %146)
  br label %147

147:                                              ; preds = %137, %136
  br label %148

148:                                              ; preds = %147, %45
  %149 = load ptr, ptr getelementptr inbounds nuw (%struct.darktable_t, ptr @darktable, i32 0, i32 14), align 8, !tbaa !141
  %150 = getelementptr inbounds nuw %struct.dt_gui_gtk_t, ptr %149, i32 0, i32 0
  %151 = load ptr, ptr %150, align 8, !tbaa !142
  %152 = call ptr @dt_ui_center(ptr noundef %151)
  call void @gtk_widget_grab_focus(ptr noundef %152)
  store i32 1, ptr %4, align 4
  store i32 1, ptr %9, align 4
  br label %170

153:                                              ; preds = %25
  %154 = load ptr, ptr %6, align 8, !tbaa !120
  %155 = getelementptr inbounds nuw %struct._GdkEventButton, ptr %154, i32 0, i32 8
  %156 = load i32, ptr %155, align 4, !tbaa !169
  %157 = icmp eq i32 %156, 3
  br i1 %157, label %158, label %168

158:                                              ; preds = %153
  %159 = load ptr, ptr %8, align 8, !tbaa !6
  %160 = getelementptr inbounds nuw %struct.dt_lib_module_t, ptr %159, i32 0, i32 37
  %161 = load ptr, ptr %160, align 8, !tbaa !110
  %162 = call i32 @gtk_widget_get_sensitive(ptr noundef %161)
  %163 = icmp ne i32 %162, 0
  br i1 %163, label %164, label %167

164:                                              ; preds = %158
  %165 = load ptr, ptr %8, align 8, !tbaa !6
  %166 = call i32 @_presets_popup_callback(ptr noundef null, ptr noundef null, ptr noundef %165)
  br label %167

167:                                              ; preds = %164, %158
  store i32 1, ptr %4, align 4
  store i32 1, ptr %9, align 4
  br label %170

168:                                              ; preds = %153
  br label %169

169:                                              ; preds = %168
  store i32 0, ptr %4, align 4
  store i32 1, ptr %9, align 4
  br label %170

170:                                              ; preds = %169, %167, %148, %38
  call void @llvm.lifetime.end.p0(i64 8, ptr %8) #12
  br label %171

171:                                              ; preds = %170, %24
  %172 = load i32, ptr %4, align 4
  ret i32 %172
}