; Function Attrs: nounwind uwtable
define internal range(i32 0, 2) i32 @_lib_plugin_arrow_button_press(ptr readnone captures(none) %0, ptr noundef readonly captures(none) %1, ptr noundef %2) #0 {
  %4 = load i32, ptr %1, align 8, !tbaa !138
  %.off = add i32 %4, -5
  %switch = icmp ult i32 %.off, 2
  br i1 %switch, label %88, label %5

5:                                                ; preds = %3
  %6 = getelementptr inbounds nuw i8, ptr %1, i64 52
  %7 = load i32, ptr %6, align 4, !tbaa !142
  switch i32 %7, label %88 [
    i32 1, label %8
    i32 3, label %82
  ]

8:                                                ; preds = %5
  %9 = getelementptr inbounds nuw i8, ptr %2, i64 80
  %10 = load ptr, ptr %9, align 8, !tbaa !21
  %11 = tail call i32 %10(ptr noundef %2) #19
  %.not39 = icmp eq i32 %11, 0
  br i1 %.not39, label %88, label %12

12:                                               ; preds = %8
  %13 = getelementptr inbounds nuw i8, ptr %1, i64 48
  %14 = load i32, ptr %13, align 8, !tbaa !143
  %15 = tail call i32 @gtk_accelerator_get_default_mod_mask() #19
  %16 = load i32, ptr @dt_modifier_shortcuts, align 4, !tbaa !112
  %17 = or i32 %16, %14
  %18 = and i32 %17, %15
  %.not55 = icmp eq i32 %18, 5
  br i1 %.not55, label %78, label %19

19:                                               ; preds = %12
  %20 = tail call i32 @dt_conf_get_bool(ptr noundef nonnull @.str.79) #19
  %21 = load i32, ptr %13, align 8, !tbaa !143
  %22 = tail call i32 @gtk_accelerator_get_default_mod_mask() #19
  %23 = load i32, ptr @dt_modifier_shortcuts, align 4, !tbaa !112
  %24 = or i32 %23, %21
  %25 = and i32 %24, %22
  %26 = icmp eq i32 %25, 1
  %27 = icmp ne i32 %20, 0
  %.not43.not = xor i1 %27, %26
  br i1 %.not43.not, label %28, label %.sink.split.sink.split

28:                                               ; preds = %19
  %29 = load ptr, ptr getelementptr inbounds nuw (i8, ptr @darktable, i64 80), align 8, !tbaa !22
  %30 = tail call ptr @dt_view_manager_get_current_view(ptr noundef %29) #19
  %31 = tail call i32 @dt_lib_get_container(ptr noundef nonnull %2)
  %32 = load ptr, ptr getelementptr inbounds nuw (i8, ptr @darktable, i64 72), align 8, !tbaa !71
  %.03356 = load ptr, ptr %32, align 8, !tbaa !72
  %.not4557 = icmp eq ptr %.03356, null
  br i1 %.not4557, label %.sink.split.sink.split, label %.lr.ph

.lr.ph:                                           ; preds = %28
  %33 = getelementptr inbounds nuw i8, ptr %30, i64 64
  br label %35

._crit_edge:                                      ; preds = %70
  %34 = icmp eq i32 %.135, 0
  br i1 %34, label %.sink.split, label %.sink.split.sink.split

35:                                               ; preds = %.lr.ph, %70
  %.03359 = phi ptr [ %.03356, %.lr.ph ], [ %.033, %70 ]
  %.03458 = phi i32 [ 1, %.lr.ph ], [ %.135, %70 ]
  %36 = load ptr, ptr %.03359, align 8, !tbaa !73
  %.not48 = icmp eq ptr %36, %2
  br i1 %.not48, label %70, label %37

37:                                               ; preds = %35
  %38 = tail call i32 @dt_lib_get_container(ptr noundef %36)
  %39 = icmp eq i32 %38, %31
  br i1 %39, label %40, label %70

40:                                               ; preds = %37
  %41 = getelementptr inbounds nuw i8, ptr %36, i64 80
  %42 = load ptr, ptr %41, align 8, !tbaa !21
  %43 = tail call i32 %42(ptr noundef %36) #19
  %.not49 = icmp eq i32 %43, 0
  br i1 %.not49, label %70, label %44

44:                                               ; preds = %40
  %45 = getelementptr inbounds nuw i8, ptr %36, i64 64
  %46 = load ptr, ptr %45, align 8, !tbaa !6
  %.not.i = icmp eq ptr %46, null
  br i1 %.not.i, label %dt_lib_is_visible_in_view.exit.thread, label %50

dt_lib_is_visible_in_view.exit.thread:            ; preds = %44
  %47 = getelementptr inbounds nuw i8, ptr %36, i64 56
  %48 = load ptr, ptr %47, align 8, !tbaa !17
  %49 = tail call ptr %48(ptr noundef nonnull %36) #19
  tail call void (ptr, ...) @dt_print_ext(ptr noundef nonnull @.str, ptr noundef %49) #19
  br label %70

50:                                               ; preds = %44
  %51 = tail call i32 %46(ptr noundef nonnull %36) #19
  %52 = load ptr, ptr %33, align 8, !tbaa !18
  %53 = tail call i32 %52(ptr noundef %30) #19
  %54 = and i32 %53, %51
  %55 = tail call fastcc ptr @_get_lib_view_path(ptr noundef nonnull %36, ptr noundef %30, ptr noundef nonnull @.str.1)
  %.not17.i = icmp eq ptr %55, null
  br i1 %.not17.i, label %dt_lib_is_visible_in_view.exit, label %56

56:                                               ; preds = %50
  %57 = tail call i32 @dt_conf_key_exists(ptr noundef nonnull %55) #19
  %.not18.i = icmp eq i32 %57, 0
  br i1 %.not18.i, label %dt_lib_is_visible_in_view.exit, label %58

58:                                               ; preds = %56
  %59 = tail call i32 @dt_conf_get_bool(ptr noundef nonnull %55) #19
  br label %dt_lib_is_visible_in_view.exit

dt_lib_is_visible_in_view.exit:                   ; preds = %50, %56, %58
  %.014.i = phi i32 [ %59, %58 ], [ %54, %56 ], [ %54, %50 ]
  tail call void @g_free(ptr noundef %55) #19
  %.not50 = icmp eq i32 %.014.i, 0
  br i1 %.not50, label %70, label %60

60:                                               ; preds = %dt_lib_is_visible_in_view.exit
  %.not51 = icmp eq i32 %.03458, 0
  br i1 %.not51, label %68, label %61

61:                                               ; preds = %60
  %62 = getelementptr inbounds nuw i8, ptr %36, i64 424
  %63 = load ptr, ptr %62, align 8, !tbaa !86
  %64 = tail call i64 @dtgtk_expander_get_type() #19
  %65 = tail call ptr @g_type_check_instance_cast(ptr noundef %63, i64 noundef %64) #19
  %66 = tail call i32 @dtgtk_expander_get_expanded(ptr noundef %65) #19
  %.not52 = icmp eq i32 %66, 0
  %67 = zext i1 %.not52 to i32
  br label %68

68:                                               ; preds = %61, %60
  %69 = phi i32 [ 0, %60 ], [ %67, %61 ]
  tail call void @dt_lib_gui_set_expanded(ptr noundef nonnull %36, i32 noundef 0)
  br label %70

70:                                               ; preds = %dt_lib_is_visible_in_view.exit.thread, %68, %dt_lib_is_visible_in_view.exit, %40, %37, %35
  %.135 = phi i32 [ %69, %68 ], [ %.03458, %dt_lib_is_visible_in_view.exit ], [ %.03458, %40 ], [ %.03458, %37 ], [ %.03458, %35 ], [ %.03458, %dt_lib_is_visible_in_view.exit.thread ]
  %71 = getelementptr inbounds nuw i8, ptr %.03359, i64 8
  %.033 = load ptr, ptr %71, align 8, !tbaa !72
  %.not45 = icmp eq ptr %.033, null
  br i1 %.not45, label %._crit_edge, label %35

.sink.split.sink.split:                           ; preds = %19, %._crit_edge, %28
  %72 = getelementptr inbounds nuw i8, ptr %2, i64 424
  %73 = load ptr, ptr %72, align 8, !tbaa !86
  %74 = tail call i64 @dtgtk_expander_get_type() #19
  %75 = tail call ptr @g_type_check_instance_cast(ptr noundef %73, i64 noundef %74) #19
  %76 = tail call i32 @dtgtk_expander_get_expanded(ptr noundef %75) #19
  %.not44 = icmp eq i32 %76, 0
  %77 = zext i1 %.not44 to i32
  br label %.sink.split

.sink.split:                                      ; preds = %.sink.split.sink.split, %._crit_edge
  %.sink = phi i32 [ 1, %._crit_edge ], [ %77, %.sink.split.sink.split ]
  tail call void @dt_lib_gui_set_expanded(ptr noundef nonnull %2, i32 noundef %.sink)
  br label %78

78:                                               ; preds = %.sink.split, %12
  %79 = load ptr, ptr getelementptr inbounds nuw (i8, ptr @darktable, i64 104), align 8, !tbaa !105
  %80 = load ptr, ptr %79, align 8, !tbaa !120
  %81 = tail call ptr @dt_ui_center(ptr noundef %80) #19
  tail call void @gtk_widget_grab_focus(ptr noundef %81) #19
  br label %88

82:                                               ; preds = %5
  %83 = getelementptr inbounds nuw i8, ptr %2, i64 456
  %84 = load ptr, ptr %83, align 8, !tbaa !97
  %85 = tail call i32 @gtk_widget_get_sensitive(ptr noundef %84) #19
  %.not = icmp eq i32 %85, 0
  br i1 %.not, label %88, label %86

86:                                               ; preds = %82
  %87 = tail call i32 @_presets_popup_callback(ptr noundef null, ptr poison, ptr noundef nonnull %2)
  br label %88

88:                                               ; preds = %3, %78, %8, %86, %82, %5
  %.0 = phi i32 [ 1, %3 ], [ 1, %78 ], [ 0, %8 ], [ 1, %86 ], [ 1, %82 ], [ 0, %5 ]
  ret i32 %.0
}